target datalayout = "e-m:e-p270:32:32-p271:32:32-p272:64:64-i64:64-i128:128-f80:128-n8:16:32:64-S128"
target triple = "x86_64-pc-linux-gnu"

%struct._address = type { i32, i32, ptr, ptr }
%struct._addr_port_key = type { %struct._address, i16 }

@addr_port_to_id = internal global ptr null, align 8
@next_addr_port_id = internal global i32 1, align 4

; Function Attrs: inlinehint nounwind null_pointer_is_valid sspstrong uwtable
define internal void @clear_address(ptr noundef %0) #5 {
  %2 = alloca ptr, align 8
  store ptr %0, ptr %2, align 8
  %3 = load ptr, ptr %2, align 8
  %4 = getelementptr inbounds nuw %struct._address, ptr %3, i32 0, i32 0
  store i32 0, ptr %4, align 8
  %5 = load ptr, ptr %2, align 8
  %6 = getelementptr inbounds nuw %struct._address, ptr %5, i32 0, i32 1
  store i32 0, ptr %6, align 4
  %7 = load ptr, ptr %2, align 8
  %8 = getelementptr inbounds nuw %struct._address, ptr %7, i32 0, i32 2
  store ptr null, ptr %8, align 8
  %9 = load ptr, ptr %2, align 8
  %10 = getelementptr inbounds nuw %struct._address, ptr %9, i32 0, i32 3
  store ptr null, ptr %10, align 8
  ret void
}

; Function Attrs: inlinehint null_pointer_is_valid sspstrong uwtable
define internal void @alloc_address_wmem(ptr noundef %0, ptr noundef %1, i32 noundef %2, i32 noundef %3, ptr noundef %4) #14 {
  %6 = alloca ptr, align 8
  %7 = alloca ptr, align 8
  %8 = alloca i32, align 4
  %9 = alloca i32, align 4
  %10 = alloca ptr, align 8
  store ptr %0, ptr %6, align 8
  store ptr %1, ptr %7, align 8
  store i32 %2, ptr %8, align 4
  store i32 %3, ptr %9, align 4
  store ptr %4, ptr %10, align 8
  br label %11

11:                                               ; preds = %5
  br label %12

12:                                               ; preds = %11
  %13 = load ptr, ptr %7, align 8
  call void @clear_address(ptr noundef %13)
  %14 = load i32, ptr %8, align 4
  %15 = load ptr, ptr %7, align 8
  %16 = getelementptr inbounds nuw %struct._address, ptr %15, i32 0, i32 0
  store i32 %14, ptr %16, align 8
  %17 = load i32, ptr %9, align 4
  %18 = icmp eq i32 %17, 0
  br i1 %18, label %19, label %22

19:                                               ; preds = %12
  br label %20

20:                                               ; preds = %19
  br label %21

21:                                               ; preds = %20
  br label %39

22:                                               ; preds = %12
  br label %23

23:                                               ; preds = %22
  br label %24

24:                                               ; preds = %23
  br label %25

25:                                               ; preds = %24
  br label %26

26:                                               ; preds = %25
  %27 = load ptr, ptr %6, align 8
  %28 = load ptr, ptr %10, align 8
  %29 = load i32, ptr %9, align 4
  %30 = sext i32 %29 to i64
  %31 = call ptr @wmem_memdup(ptr noundef %27, ptr noundef %28, i64 noundef %30) #25
  %32 = load ptr, ptr %7, align 8
  %33 = getelementptr inbounds nuw %struct._address, ptr %32, i32 0, i32 3
  store ptr %31, ptr %33, align 8
  %34 = load ptr, ptr %7, align 8
  %35 = getelementptr inbounds nuw %struct._address, ptr %34, i32 0, i32 2
  store ptr %31, ptr %35, align 8
  %36 = load i32, ptr %9, align 4
  %37 = load ptr, ptr %7, align 8
  %38 = getelementptr inbounds nuw %struct._address, ptr %37, i32 0, i32 1
  store i32 %36, ptr %38, align 4
  br label %39

39:                                               ; preds = %26, %21
  ret void
}

; Function Attrs: inlinehint null_pointer_is_valid sspstrong uwtable
define internal void @copy_address_wmem(ptr noundef %0, ptr noundef %1, ptr noundef %2) #14 {
  %4 = alloca ptr, align 8
  %5 = alloca ptr, align 8
  %6 = alloca ptr, align 8
  store ptr %0, ptr %4, align 8
  store ptr %1, ptr %5, align 8
  store ptr %2, ptr %6, align 8
  %7 = load ptr, ptr %4, align 8
  %8 = load ptr, ptr %5, align 8
  %9 = load ptr, ptr %6, align 8
  %10 = getelementptr inbounds nuw %struct._address, ptr %9, i32 0, i32 0
  %11 = load i32, ptr %10, align 8
  %12 = load ptr, ptr %6, align 8
  %13 = getelementptr inbounds nuw %struct._address, ptr %12, i32 0, i32 1
  %14 = load i32, ptr %13, align 4
  %15 = load ptr, ptr %6, align 8
  %16 = getelementptr inbounds nuw %struct._address, ptr %15, i32 0, i32 2
  %17 = load ptr, ptr %16, align 8
  call void @alloc_address_wmem(ptr noundef %7, ptr noundef %8, i32 noundef %11, i32 noundef %14, ptr noundef %17)
  ret void
}

; Function Attrs: inlinehint null_pointer_is_valid sspstrong uwtable
define internal void @copy_address(ptr noundef %0, ptr noundef %1) #14 {
  %3 = alloca ptr, align 8
  %4 = alloca ptr, align 8
  store ptr %0, ptr %3, align 8
  store ptr %1, ptr %4, align 8
  %5 = load ptr, ptr %3, align 8
  %6 = load ptr, ptr %4, align 8
  call void @copy_address_wmem(ptr noundef null, ptr noundef %5, ptr noundef %6)
  ret void
}

; Function Attrs: alwaysinline nounwind
define internal ptr @memcpy.inline(ptr noalias %0, ptr noalias %1, i64 %2) #16 {
  %4 = alloca ptr, align 8
  %5 = alloca ptr, align 8
  %6 = alloca i64, align 8
  store ptr %0, ptr %4, align 8
  store ptr %1, ptr %5, align 8
  store i64 %2, ptr %6, align 8
  %7 = load ptr, ptr %4, align 8
  %8 = load ptr, ptr %5, align 8
  %9 = load i64, ptr %6, align 8
  %10 = load ptr, ptr %4, align 8
  %11 = call i64 @llvm.objectsize.i64.p0(ptr %10, i1 false, i1 true, i1 true)
  %12 = call ptr @__memcpy_chk(ptr noundef %7, ptr noundef %8, i64 noundef %9, i64 noundef %11) #19
  ret ptr %12
}

; Function Attrs: null_pointer_is_valid sspstrong uwtable
define internal i32 @assign_addr_port_id(ptr noundef %0, i16 noundef zeroext %1) #0 {
  %3 = alloca i32, align 4
  %4 = alloca ptr, align 8
  %5 = alloca i16, align 2
  %6 = alloca %struct._addr_port_key, align 8
  %7 = alloca ptr, align 8
  %8 = alloca i32, align 4
  %9 = alloca i32, align 4
  %10 = alloca ptr, align 8
  %11 = alloca i64, align 8
  %12 = alloca i64, align 8
  %13 = alloca ptr, align 8
  %14 = alloca ptr, align 8
  store ptr %0, ptr %4, align 8
  store i16 %1, ptr %5, align 2
  call void @llvm.lifetime.start.p0(i64 32, ptr %6) #19
  call void @llvm.lifetime.start.p0(i64 8, ptr %7) #19
  call void @llvm.lifetime.start.p0(i64 4, ptr %8) #19
  %15 = load ptr, ptr %4, align 8
  %16 = getelementptr inbounds nuw %struct._address, ptr %15, i32 0, i32 0
  %17 = load i32, ptr %16, align 8
  %18 = icmp eq i32 %17, 0
  br i1 %18, label %19, label %20

19:                                               ; preds = %2
  store i32 0, ptr %3, align 4
  store i32 1, ptr %9, align 4
  br label %108

20:                                               ; preds = %2
  call void @llvm.lifetime.start.p0(i64 8, ptr %10) #19
  %21 = load ptr, ptr %4, align 8
  %22 = getelementptr inbounds nuw %struct._address, ptr %21, i32 0, i32 0
  %23 = load i32, ptr %22, align 8
  %24 = getelementptr inbounds nuw %struct._addr_port_key, ptr %6, i32 0, i32 0
  %25 = getelementptr inbounds nuw %struct._address, ptr %24, i32 0, i32 0
  store i32 %23, ptr %25, align 8
  %26 = load ptr, ptr %4, align 8
  %27 = getelementptr inbounds nuw %struct._address, ptr %26, i32 0, i32 1
  %28 = load i32, ptr %27, align 4
  %29 = getelementptr inbounds nuw %struct._addr_port_key, ptr %6, i32 0, i32 0
  %30 = getelementptr inbounds nuw %struct._address, ptr %29, i32 0, i32 1
  store i32 %28, ptr %30, align 4
  %31 = call ptr @wmem_packet_scope()
  %32 = load ptr, ptr %4, align 8
  %33 = getelementptr inbounds nuw %struct._address, ptr %32, i32 0, i32 1
  %34 = load i32, ptr %33, align 4
  %35 = sext i32 %34 to i64
  %36 = call noalias ptr @wmem_alloc(ptr noundef %31, i64 noundef %35) #21
  store ptr %36, ptr %10, align 8
  %37 = load ptr, ptr %10, align 8
  %38 = load ptr, ptr %4, align 8
  %39 = getelementptr inbounds nuw %struct._address, ptr %38, i32 0, i32 2
  %40 = load ptr, ptr %39, align 8
  %41 = load ptr, ptr %4, align 8
  %42 = getelementptr inbounds nuw %struct._address, ptr %41, i32 0, i32 1
  %43 = load i32, ptr %42, align 4
  %44 = sext i32 %43 to i64
  %45 = call ptr @memcpy.inline(ptr noundef %37, ptr noundef %40, i64 noundef %44) #19
  %46 = load ptr, ptr %10, align 8
  %47 = getelementptr inbounds nuw %struct._addr_port_key, ptr %6, i32 0, i32 0
  %48 = getelementptr inbounds nuw %struct._address, ptr %47, i32 0, i32 3
  store ptr %46, ptr %48, align 8
  %49 = getelementptr inbounds nuw %struct._addr_port_key, ptr %6, i32 0, i32 0
  %50 = getelementptr inbounds nuw %struct._address, ptr %49, i32 0, i32 3
  %51 = load ptr, ptr %50, align 8
  %52 = getelementptr inbounds nuw %struct._addr_port_key, ptr %6, i32 0, i32 0
  %53 = getelementptr inbounds nuw %struct._address, ptr %52, i32 0, i32 2
  store ptr %51, ptr %53, align 8
  call void @llvm.lifetime.end.p0(i64 8, ptr %10) #19
  %54 = load i16, ptr %5, align 2
  %55 = getelementptr inbounds nuw %struct._addr_port_key, ptr %6, i32 0, i32 1
  store i16 %54, ptr %55, align 8
  %56 = load ptr, ptr @addr_port_to_id, align 8
  %57 = call ptr @g_hash_table_lookup(ptr noundef %56, ptr noundef %6)
  %58 = ptrtoint ptr %57 to i64
  %59 = trunc i64 %58 to i32
  store i32 %59, ptr %8, align 4
  %60 = load i32, ptr %8, align 4
  %61 = icmp ne i32 %60, 0
  br i1 %61, label %62, label %64

62:                                               ; preds = %20
  %63 = load i32, ptr %8, align 4
  store i32 %63, ptr %3, align 4
  store i32 1, ptr %9, align 4
  br label %108

64:                                               ; preds = %20
  call void @llvm.lifetime.start.p0(i64 8, ptr %11) #19
  store i64 1, ptr %11, align 8
  call void @llvm.lifetime.start.p0(i64 8, ptr %12) #19
  store i64 32, ptr %12, align 8
  call void @llvm.lifetime.start.p0(i64 8, ptr %13) #19
  %65 = load i64, ptr %12, align 8
  %66 = icmp eq i64 %65, 1
  br i1 %66, label %67, label %70

67:                                               ; preds = %64
  %68 = load i64, ptr %11, align 8
  %69 = call noalias ptr @g_malloc0(i64 noundef %68) #23
  store ptr %69, ptr %13, align 8
  br label %91

70:                                               ; preds = %64
  %71 = load i64, ptr %11, align 8
  %72 = call i1 @llvm.is.constant.i64(i64 %71)
  br i1 %72, label %73, label %86

73:                                               ; preds = %70
  %74 = load i64, ptr %12, align 8
  %75 = icmp eq i64 %74, 0
  br i1 %75, label %81, label %76

76:                                               ; preds = %73
  %77 = load i64, ptr %11, align 8
  %78 = load i64, ptr %12, align 8
  %79 = udiv i64 -1, %78
  %80 = icmp ule i64 %77, %79
  br i1 %80, label %81, label %86

81:                                               ; preds = %76, %73
  %82 = load i64, ptr %11, align 8
  %83 = load i64, ptr %12, align 8
  %84 = mul i64 %82, %83
  %85 = call noalias ptr @g_malloc0(i64 noundef %84) #23
  store ptr %85, ptr %13, align 8
  br label %90

86:                                               ; preds = %76, %70
  %87 = load i64, ptr %11, align 8
  %88 = load i64, ptr %12, align 8
  %89 = call noalias ptr @g_malloc0_n(i64 noundef %87, i64 noundef %88) #24
  store ptr %89, ptr %13, align 8
  br label %90

90:                                               ; preds = %86, %81
  br label %91

91:                                               ; preds = %90, %67
  %92 = load ptr, ptr %13, align 8
  store ptr %92, ptr %14, align 8
  call void @llvm.lifetime.end.p0(i64 8, ptr %13) #19
  call void @llvm.lifetime.end.p0(i64 8, ptr %12) #19
  call void @llvm.lifetime.end.p0(i64 8, ptr %11) #19
  %93 = load ptr, ptr %14, align 8
  store ptr %93, ptr %7, align 8
  %94 = load ptr, ptr %7, align 8
  %95 = getelementptr inbounds nuw %struct._addr_port_key, ptr %94, i32 0, i32 0
  %96 = load ptr, ptr %4, align 8
  call void @copy_address(ptr noundef %95, ptr noundef %96)
  %97 = load i16, ptr %5, align 2
  %98 = load ptr, ptr %7, align 8
  %99 = getelementptr inbounds nuw %struct._addr_port_key, ptr %98, i32 0, i32 1
  store i16 %97, ptr %99, align 8
  %100 = load ptr, ptr @addr_port_to_id, align 8
  %101 = load ptr, ptr %7, align 8
  %102 = load i32, ptr @next_addr_port_id, align 4
  %103 = zext i32 %102 to i64
  %104 = inttoptr i64 %103 to ptr
  %105 = call i32 @g_hash_table_insert(ptr noundef %100, ptr noundef %101, ptr noundef %104)
  %106 = load i32, ptr @next_addr_port_id, align 4
  %107 = add i32 %106, 1
  store i32 %107, ptr @next_addr_port_id, align 4
  store i32 %106, ptr %3, align 4
  store i32 1, ptr %9, align 4
  br label %108

108:                                              ; preds = %91, %62, %19
  call void @llvm.lifetime.end.p0(i64 4, ptr %8) #19
  call void @llvm.lifetime.end.p0(i64 8, ptr %7) #19
  call void @llvm.lifetime.end.p0(i64 32, ptr %6) #19
  %109 = load i32, ptr %3, align 4
  ret i32 %109
}