; Function Attrs: null_pointer_is_valid sspstrong uwtable
define internal fastcc i32 @assign_addr_port_id(ptr noundef readonly captures(none) %0, i16 noundef zeroext %1) unnamed_addr #0 {
  %3 = alloca %struct._addr_port_key, align 8
  call void @llvm.lifetime.start.p0(i64 32, ptr nonnull %3) #27
  %4 = load i32, ptr %0, align 8
  %5 = icmp eq i32 %4, 0
  br i1 %5, label %47, label %6

6:                                                ; preds = %2
  store i32 %4, ptr %3, align 8
  %7 = getelementptr inbounds nuw i8, ptr %0, i64 4
  %8 = load i32, ptr %7, align 4
  %9 = getelementptr inbounds nuw i8, ptr %3, i64 4
  store i32 %8, ptr %9, align 4
  %10 = tail call ptr @wmem_packet_scope()
  %11 = load i32, ptr %7, align 4
  %12 = sext i32 %11 to i64
  %13 = tail call noalias ptr @wmem_alloc(ptr noundef %10, i64 noundef %12) #24
  %14 = getelementptr inbounds nuw i8, ptr %0, i64 8
  %15 = load ptr, ptr %14, align 8
  %16 = load i32, ptr %7, align 4
  %17 = sext i32 %16 to i64
  %18 = icmp ne i32 %11, -1
  tail call void @llvm.assume(i1 %18)
  %19 = tail call ptr @__memcpy_chk(ptr noundef %13, ptr noundef %15, i64 noundef range(i64 -2147483648, 4294967296) %17, i64 noundef %12) #27, !alias.scope !29
  %20 = getelementptr inbounds nuw i8, ptr %3, i64 16
  store ptr %13, ptr %20, align 8
  %21 = getelementptr inbounds nuw i8, ptr %3, i64 8
  store ptr %13, ptr %21, align 8
  %22 = getelementptr inbounds nuw i8, ptr %3, i64 24
  store i16 %1, ptr %22, align 8
  %23 = load ptr, ptr @addr_port_to_id, align 8
  %24 = call ptr @g_hash_table_lookup(ptr noundef %23, ptr noundef nonnull %3)
  %25 = ptrtoint ptr %24 to i64
  %26 = trunc i64 %25 to i32
  %.not = icmp eq i32 %26, 0
  br i1 %.not, label %27, label %47

27:                                               ; preds = %6
  %28 = call noalias dereferenceable_or_null(32) ptr @g_malloc0(i64 noundef 32) #28
  %29 = load i32, ptr %0, align 8
  %30 = load i32, ptr %7, align 4
  %31 = load ptr, ptr %14, align 8
  call void @llvm.memset.p0.i64(ptr noundef align 8 dereferenceable(24) %28, i8 0, i64 24, i1 false)
  store i32 %29, ptr %28, align 8
  %32 = icmp eq i32 %30, 0
  br i1 %32, label %copy_address.exit, label %33

33:                                               ; preds = %27
  %34 = sext i32 %30 to i64
  %35 = call ptr @wmem_memdup(ptr noundef null, ptr noundef %31, i64 noundef %34) #29
  %36 = getelementptr inbounds nuw i8, ptr %28, i64 16
  store ptr %35, ptr %36, align 8
  %37 = getelementptr inbounds nuw i8, ptr %28, i64 8
  store ptr %35, ptr %37, align 8
  %38 = getelementptr inbounds nuw i8, ptr %28, i64 4
  store i32 %30, ptr %38, align 4
  br label %copy_address.exit

copy_address.exit:                                ; preds = %27, %33
  %39 = getelementptr inbounds nuw i8, ptr %28, i64 24
  store i16 %1, ptr %39, align 8
  %40 = load ptr, ptr @addr_port_to_id, align 8
  %41 = load i32, ptr @next_addr_port_id, align 4
  %42 = zext i32 %41 to i64
  %43 = inttoptr i64 %42 to ptr
  %44 = call i32 @g_hash_table_insert(ptr noundef %40, ptr noundef %28, ptr noundef %43)
  %45 = load i32, ptr @next_addr_port_id, align 4
  %46 = add i32 %45, 1
  store i32 %46, ptr @next_addr_port_id, align 4
  br label %47

47:                                               ; preds = %6, %2, %copy_address.exit
  %.0 = phi i32 [ %45, %copy_address.exit ], [ 0, %2 ], [ %26, %6 ]
  call void @llvm.lifetime.end.p0(i64 32, ptr nonnull %3) #27
  ret i32 %.0
}